target datalayout = "e-m:e-p270:32:32-p271:32:32-p272:64:64-i64:64-i128:128-f80:128-n8:16:32:64-S128"
target triple = "x86_64-pc-linux-gnu"

; Function Attrs: mustprogress nounwind uwtable
define noundef i32 @_ZN6LibRaw7median4EPi(ptr noundef nonnull align 8 dereferenceable(767680) %0, ptr noundef %1) #5 align 2 {
  %3 = alloca ptr, align 8
  %4 = alloca ptr, align 8
  %5 = alloca i32, align 4
  %6 = alloca i32, align 4
  %7 = alloca i32, align 4
  %8 = alloca i32, align 4
  store ptr %0, ptr %3, align 8, !tbaa !6
  store ptr %1, ptr %4, align 8, !tbaa !11
  call void @llvm.lifetime.start.p0(i64 4, ptr %5) #6
  call void @llvm.lifetime.start.p0(i64 4, ptr %6) #6
  call void @llvm.lifetime.start.p0(i64 4, ptr %7) #6
  call void @llvm.lifetime.start.p0(i64 4, ptr %8) #6
  %9 = load ptr, ptr %4, align 8, !tbaa !11
  %10 = getelementptr inbounds i32, ptr %9, i64 0
  %11 = load i32, ptr %10, align 4, !tbaa !13
  store i32 %11, ptr %7, align 4, !tbaa !13
  store i32 %11, ptr %6, align 4, !tbaa !13
  store i32 %11, ptr %5, align 4, !tbaa !13
  store i32 1, ptr %8, align 4, !tbaa !13
  br label %12

12:                                               ; preds = %51, %2
  %13 = load i32, ptr %8, align 4, !tbaa !13
  %14 = icmp slt i32 %13, 4
  br i1 %14, label %15, label %54

15:                                               ; preds = %12
  %16 = load ptr, ptr %4, align 8, !tbaa !11
  %17 = load i32, ptr %8, align 4, !tbaa !13
  %18 = sext i32 %17 to i64
  %19 = getelementptr inbounds i32, ptr %16, i64 %18
  %20 = load i32, ptr %19, align 4, !tbaa !13
  %21 = load i32, ptr %7, align 4, !tbaa !13
  %22 = add nsw i32 %21, %20
  store i32 %22, ptr %7, align 4, !tbaa !13
  %23 = load i32, ptr %5, align 4, !tbaa !13
  %24 = load ptr, ptr %4, align 8, !tbaa !11
  %25 = load i32, ptr %8, align 4, !tbaa !13
  %26 = sext i32 %25 to i64
  %27 = getelementptr inbounds i32, ptr %24, i64 %26
  %28 = load i32, ptr %27, align 4, !tbaa !13
  %29 = icmp sgt i32 %23, %28
  br i1 %29, label %30, label %36

30:                                               ; preds = %15
  %31 = load ptr, ptr %4, align 8, !tbaa !11
  %32 = load i32, ptr %8, align 4, !tbaa !13
  %33 = sext i32 %32 to i64
  %34 = getelementptr inbounds i32, ptr %31, i64 %33
  %35 = load i32, ptr %34, align 4, !tbaa !13
  store i32 %35, ptr %5, align 4, !tbaa !13
  br label %36

36:                                               ; preds = %30, %15
  %37 = load i32, ptr %6, align 4, !tbaa !13
  %38 = load ptr, ptr %4, align 8, !tbaa !11
  %39 = load i32, ptr %8, align 4, !tbaa !13
  %40 = sext i32 %39 to i64
  %41 = getelementptr inbounds i32, ptr %38, i64 %40
  %42 = load i32, ptr %41, align 4, !tbaa !13
  %43 = icmp slt i32 %37, %42
  br i1 %43, label %44, label %50

44:                                               ; preds = %36
  %45 = load ptr, ptr %4, align 8, !tbaa !11
  %46 = load i32, ptr %8, align 4, !tbaa !13
  %47 = sext i32 %46 to i64
  %48 = getelementptr inbounds i32, ptr %45, i64 %47
  %49 = load i32, ptr %48, align 4, !tbaa !13
  store i32 %49, ptr %6, align 4, !tbaa !13
  br label %50

50:                                               ; preds = %44, %36
  br label %51

51:                                               ; preds = %50
  %52 = load i32, ptr %8, align 4, !tbaa !13
  %53 = add nsw i32 %52, 1
  store i32 %53, ptr %8, align 4, !tbaa !13
  br label %12, !llvm.loop !93

54:                                               ; preds = %12
  %55 = load i32, ptr %7, align 4, !tbaa !13
  %56 = load i32, ptr %5, align 4, !tbaa !13
  %57 = sub nsw i32 %55, %56
  %58 = load i32, ptr %6, align 4, !tbaa !13
  %59 = sub nsw i32 %57, %58
  %60 = ashr i32 %59, 1
  call void @llvm.lifetime.end.p0(i64 4, ptr %8) #6
  call void @llvm.lifetime.end.p0(i64 4, ptr %7) #6
  call void @llvm.lifetime.end.p0(i64 4, ptr %6) #6
  call void @llvm.lifetime.end.p0(i64 4, ptr %5) #6
  ret i32 %60
}