; Function Attrs: mustprogress nofree norecurse nosync nounwind willreturn memory(argmem: read) uwtable
define noundef range(i32 -1073741824, 1073741824) i32 @_ZN6LibRaw7median4EPi(ptr noundef nonnull readnone align 8 captures(none) dereferenceable(767680) %0, ptr noundef readonly captures(none) %1) local_unnamed_addr #5 align 2 {
  %3 = load i32, ptr %1, align 4, !tbaa !71
  br label %4

4:                                                ; preds = %2, %4
  %indvars.iv = phi i64 [ 1, %2 ], [ %indvars.iv.next, %4 ]
  %.01826 = phi i32 [ %3, %2 ], [ %7, %4 ]
  %.01925 = phi i32 [ %3, %2 ], [ %.1, %4 ]
  %.02024 = phi i32 [ %3, %2 ], [ %spec.select, %4 ]
  %5 = getelementptr inbounds nuw i32, ptr %1, i64 %indvars.iv
  %6 = load i32, ptr %5, align 4, !tbaa !71
  %7 = add nsw i32 %6, %.01826
  %spec.select = tail call i32 @llvm.smin.i32(i32 %.02024, i32 %6)
  %.1 = tail call i32 @llvm.smax.i32(i32 %.01925, i32 %6)
  %indvars.iv.next = add nuw nsw i64 %indvars.iv, 1
  %exitcond.not = icmp eq i64 %indvars.iv.next, 4
  br i1 %exitcond.not, label %8, label %4, !llvm.loop !90

8:                                                ; preds = %4
  %9 = add i32 %.1, %spec.select
  %10 = sub i32 %7, %9
  %11 = ashr i32 %10, 1
  ret i32 %11
}